ASxxxx Linker V03.00 + NoICE + sdld,  page 1.
Hexadecimal  [32-Bits]

Area                                    Addr        Size        Decimal Bytes (Attributes)
--------------------------------        ----        ----        ------- ----- ------------
.  .ABS.                            00000000    00000000 =           0. bytes (ABS,CON)

      Value  Global                              Global Defined In Module
      -----  --------------------------------   ------------------------
     00000000  .__.ABS.                           
     00000000  l__CABS                         
     00000000  l__DABS                         
     00000000  l__GSFINAL                      
     00000000  l__GSINIT                       
     00000000  l__HOME                         
     00000000  l__INITIALIZED                  
     00000000  l__INITIALIZER                  
     00000000  l__g_tablatrans_                
     00000000  s__CABS                         
     00000000  s__DABS                         
     00000000  s__g_tablatrans_                
     00000000  s__g_tablatrans_0               
     000000CC  l__CSEG                         
     000000DF  l__DATA                         
     00000100  l__g_tablatrans_0               
     00001000  s__CODE                         
     000022C8  l__CODE                         
     000032C8  s__DATA                         
     000033A7  s__CSEG                         
     000033A7  s__GSFINAL                      
     000033A7  s__GSINIT                       
     000033A7  s__HOME                         
     000033A7  s__INITIALIZED                  
     000033A7  s__INITIALIZER                  
     0000A8DC  _keys1                             main
     0000A92B  _keys2                             main
     0000B000  _screenBuffer0                     main

ASxxxx Linker V03.00 + NoICE + sdld,  page 2.
Hexadecimal  [32-Bits]

Area                                    Addr        Size        Decimal Bytes (Attributes)
--------------------------------        ----        ----        ------- ----- ------------
_CODE                               00001000    000022C8 =        8904. bytes (REL,CON)

      Value  Global                              Global Defined In Module
      -----  --------------------------------   ------------------------
     00001000  _g_font_chars                      font_chars
     000012F4  _sp_tiles_0                        tiles
     00001324  _sp_tiles_1                        tiles
     00001354  _sp_tiles_2                        tiles
     00001384  _sp_tiles_3                        tiles
     000013B4  _sp_tiles_4                        tiles
     000013E4  _sp_tiles_5                        tiles
     00001414  _sp_tiles_6                        tiles
     00001444  _sp_tiles_7                        tiles
     00001474  _sp_tiles_8                        tiles
     000014A4  _dummy_cpct_transparentMaskTable   main
     000014A4  _strLength                         text
     000014BA  _swapColors                        text
     000014D2  _strCopy                           text
     000014FB  _drawText                          text
     0000190A  _initKeys                          keyboard
     0000194A  _keysSINGLE                        keyboard
     00001969  _keys1VS                           keyboard
     00001988  _keys2VS                           keyboard
     000019A7  _wait4OneKey                       keyboard
     000019B6  _wait4UserKeypress                 keyboard
     000019D4  _waitKeyUp                         keyboard
     000019E3  _sys_input_init                    InputSystem
     000019E4  _sys_input_update                  InputSystem
     00001A39  _man_board_create                  BoardManager
     00001A5E  _tiles                             BoardManager
     00001A70  _man_board_init                    BoardManager
     00001AF5  _man_board_update                  BoardManager
     00001AF6  _man_board_render                  BoardManager
     00001BBF  _man_game_init                     GameManager
     00001C0E  _man_game_update                   GameManager
     00001C11  _man_game_render                   GameManager
     00001C17  _man_player_init                   PlayerManager
     00001C1D  _man_player_createPlayer           PlayerManager
     00001CD2  _man_player_get_player             PlayerManager
     00001CEB  _man_player_update                 PlayerManager
     00001CEC  _man_player_render                 PlayerManager
     00001CED  _clearScreen                       tools
     00001D0B  _drawWindow                        tools
     00001F3D  _updateNumber                      tools
     00001FA3  _resultNumber                      tools
     00002084  _resultYesNo                       tools
     000020BE  _showMessage                       tools
     000021F1  _drawCompressToScreen              tools
     00002252  _winape_breakpoint                 tools
     0000225A  _cpct_getScreenToSprite            cpct_sprites
     00002281  _cpct_isKeyPressed                 cpct_keyboard
     00002281  cpct_isKeyPressed_asm              cpct_keyboard
     0000228D  _cpct_scanKeyboard_f               cpct_keyboard
     0000228D  cpct_scanKeyboard_f_asm            cpct_keyboard
ASxxxx Linker V03.00 + NoICE + sdld,  page 3.
Hexadecimal  [32-Bits]

Area                                    Addr        Size        Decimal Bytes (Attributes)
--------------------------------        ----        ----        ------- ----- ------------
_CODE                               00001000    000022C8 =        8904. bytes (REL,CON)

      Value  Global                              Global Defined In Module
      -----  --------------------------------   ------------------------
     000022F7  _cpct_setPalette                   cpct_video
     0000230E  _cpct_setPALColour                 cpct_video
     0000231A  _cpct_drawSprite                   cpct_sprites
     000023BF  __moduchar                         
     000023CB  __moduint                          
     000023D6  _cpct_keyboardStatusBuffer         cpct_keyboard
     000023E0  _cpct_waitHalts                    cpct_memutils
     000023E5  _cpct_setSeed_mxor                 cpct_random
     000023E5  cpct_setSeed_mxor_asm              cpct_random
     000023ED  __divuint                          
     000023F5  __divuchar                         
     000023FC  __divu8                            
     000023FF  __divu16                           
     0000242E  _cpct_restoreState_mxor_u8         cpct_random
     0000242E  cpct_restoreState_mxor_u8_asm      cpct_random
     00002434  _cpct_setBlendMode                 cpct_sprites
     00002434  cpct_setBlendMode_asm              cpct_sprites
     0000243A  _cpct_getRandom_mxor_u8            cpct_random
     0000243A  cpct_getRandom_mxor_u8_asm         cpct_random
     0000243B  cpct_randomIdx_mxor_u8             cpct_random
     0000245F  _cpct_setStackLocation             cpct_memutils
     0000245F  cpct_setStackLocation_asm          cpct_memutils
     00002483  _vsprintf                          sprintf
     000024B8  _sprintf                           sprintf
     000024ED  _cpct_nextRandom_mxor_u32          cpct_random
     000024ED  cpct_nextRandom_mxor_u32_asm       cpct_random
     00002510  _cpct_isAnyKeyPressed              cpct_keyboard
     00002510  cpct_isAnyKeyPressed_asm           cpct_keyboard
     0000251D  _cpct_zx7b_decrunch_s              cpct_compression
     00002560  _cpct_isAnyKeyPressed_f            cpct_keyboard
     00002560  cpct_isAnyKeyPressed_f_asm         cpct_keyboard
     0000257B  _cpct_setVideoMode                 cpct_video
     00002589  _cpct_px2byteM0                    cpct_sprites
     000025A5  _cpct_memset                       cpct_memutils
     000025B3  _cpct_memcpy                       cpct_memutils
     000025BB  _cpct_disableFirmware              cpct_firmware
     000025BB  _cpct_removeInterruptHandler       cpct_firmware
     000025BB  cpct_disableFirmware_asm           cpct_firmware
     000025BB  cpct_removeInterruptHandler_asm    cpct_firmware
     000025CB  _cpct_drawSolidBox                 cpct_sprites
     00002683  _cpct_drawSpriteBlended            cpct_sprites
     0000268D  _cpct_dsb_blendFunction            cpct_sprites
     000026AE  _cpct_mode_rom_status              cpct_firmware
     000026AF  _cpct_getScreenPtr                 cpct_video
     000026CF  _cpct_drawSpriteMaskedAlignedTab   cpct_sprites
     0000270A  _cpct_scanKeyboard                 cpct_keyboard
     0000270A  cpct_scanKeyboard_asm              cpct_keyboard
     0000273B  _cpct_setInterruptHandler          cpct_firmware
     0000273B  cpct_setInterruptHandler_asm       cpct_firmware
     0000274C  cpct_safeInterruptHandlerHook      cpct_firmware
     00002862  __print_format                     printf_large
ASxxxx Linker V03.00 + NoICE + sdld,  page 4.
Hexadecimal  [32-Bits]

Area                                    Addr        Size        Decimal Bytes (Attributes)
--------------------------------        ----        ----        ------- ----- ------------
_CODE                               00001000    000022C8 =        8904. bytes (REL,CON)

      Value  Global                              Global Defined In Module
      -----  --------------------------------   ------------------------
     000032A4  _cpct_mxor32_seed                  cpct_random
     000032A8  ___sdcc_call_hl                    
     000032A9  dc_mode0_ct                        cpct_strings
     000032B9  _strlen                            
ASxxxx Linker V03.00 + NoICE + sdld,  page 5.
Hexadecimal  [32-Bits]

Area                                    Addr        Size        Decimal Bytes (Attributes)
--------------------------------        ----        ----        ------- ----- ------------
_DATA                               000032C8    000000DF =         223. bytes (REL,CON)

      Value  Global                              Global Defined In Module
      -----  --------------------------------   ------------------------
     000032C8  _g_nInterrupt                      main
     000032C9  _i_time                            main
     000032CD  _board                             BoardManager
     00003366  _players_list                      PlayerManager
     000033A6  _players_num                       PlayerManager

ASxxxx Linker V03.00 + NoICE + sdld,  page 6.
Hexadecimal  [32-Bits]

Area                                    Addr        Size        Decimal Bytes (Attributes)
--------------------------------        ----        ----        ------- ----- ------------
_g_tablatrans_0                     00000000    00000100 =         256. bytes (ABS,CON)

      Value  Global                              Global Defined In Module
      -----  --------------------------------   ------------------------
     00000200  _g_tablatrans                      main

ASxxxx Linker V03.00 + NoICE + sdld,  page 7.
Hexadecimal  [32-Bits]

Area                                    Addr        Size        Decimal Bytes (Attributes)
--------------------------------        ----        ----        ------- ----- ------------
_CSEG                               000033A7    000000CC =         204. bytes (REL,CON)

      Value  Global                              Global Defined In Module
      -----  --------------------------------   ------------------------
     000033A7  _myInterruptHandler                main
     000033D3  _sp_palette0                       main
     000033E3  _initMain                          main
     00003456  _main                              main

ASxxxx Linker V03.00 + NoICE + sdld,  page 8.

Files Linked                              [ module(s) ]

obj/sprites/font_chars.rel                [ font_chars ]
obj/sprites/tiles.rel                     [ tiles ]
obj/main.rel                              [ main ]
obj/text/text.rel                         [ text ]
obj/keyboard/keyboard.rel                 [ keyboard ]
obj/sys/InputSystem.rel                   [ InputSystem ]
obj/man/BoardManager.rel                  [ BoardManager ]
obj/man/GameManager.rel                   [ GameManager ]
obj/man/PlayerManager.rel                 [ PlayerManager ]
obj/util/tools.rel                        [ tools ]


Libraries Linked                          [ object file ]

/home/cabox/workspace/cpctelera/cpctelera/cpctelera.lib
                                          [ cpct_getScreenToSprite_cbindings ]
/home/cabox/workspace/cpctelera/cpctelera/cpctelera.lib
                                          [ cpct_isKeyPressed.rel ]
/home/cabox/workspace/cpctelera/cpctelera/cpctelera.lib
                                          [ cpct_scanKeyboard_f.rel ]
/home/cabox/workspace/cpctelera/cpctelera/cpctelera.lib
                                          [ cpct_setPalette_cbindings.rel ]
/home/cabox/workspace/cpctelera/cpctelera/cpctelera.lib
                                          [ cpct_setPALColour_cbindings.rel ]
/home/cabox/workspace/cpctelera/cpctelera/cpctelera.lib
                                          [ cpct_drawSprite_cbindings.rel ]
/home/cabox/workspace/cpctelera/cpctelera/tools/sdcc-3.6.8-r9946/bin/../share/sdcc/lib/z80/z80.lib
                                          [ modunsigned.rel ]
/home/cabox/workspace/cpctelera/cpctelera/cpctelera.lib
                                          [ keyboard.rel ]
/home/cabox/workspace/cpctelera/cpctelera/cpctelera.lib
                                          [ cpct_waitHalts_cbindings.rel ]
/home/cabox/workspace/cpctelera/cpctelera/cpctelera.lib
                                          [ cpct_setSeed_mxor.rel ]
/home/cabox/workspace/cpctelera/cpctelera/tools/sdcc-3.6.8-r9946/bin/../share/sdcc/lib/z80/z80.lib
                                          [ divunsigned.rel ]
/home/cabox/workspace/cpctelera/cpctelera/cpctelera.lib
                                          [ cpct_restoreState_mxor_u8.rel ]
/home/cabox/workspace/cpctelera/cpctelera/cpctelera.lib
                                          [ cpct_setBlendMode.rel ]
/home/cabox/workspace/cpctelera/cpctelera/cpctelera.lib
                                          [ cpct_getRandom_mxor_u8.rel ]
/home/cabox/workspace/cpctelera/cpctelera/cpctelera.lib
                                          [ cpct_setStackLocation.rel ]
/home/cabox/workspace/cpctelera/cpctelera/tools/sdcc-3.6.8-r9946/bin/../share/sdcc/lib/z80/z80.lib
                                          [ sprintf.rel ]
/home/cabox/workspace/cpctelera/cpctelera/cpctelera.lib
                                          [ cpct_nextRandom_mxor_u32.rel ]
/home/cabox/workspace/cpctelera/cpctelera/cpctelera.lib
                                          [ cpct_isAnyKeyPressed.rel ]
/home/cabox/workspace/cpctelera/cpctelera/cpctelera.lib
                                          [ cpct_zx7b_decrunch_s_cbindings.r ]
/home/cabox/workspace/cpctelera/cpctelera/cpctelera.lib
                                          [ cpct_isAnyKeyPressed_f.rel ]
/home/cabox/workspace/cpctelera/cpctelera/cpctelera.lib
                                          [ cpct_setVideoMode_cbindings.rel ]
/home/cabox/workspace/cpctelera/cpctelera/cpctelera.lib
                                          [ cpct_px2byteM0_cbindings.rel ]
/home/cabox/workspace/cpctelera/cpctelera/cpctelera.lib
                                          [ cpct_memset_cbinding.rel ]
/home/cabox/workspace/cpctelera/cpctelera/cpctelera.lib
                                          [ cpct_memcpy_cbindings.rel ]
/home/cabox/workspace/cpctelera/cpctelera/cpctelera.lib
                                          [ cpct_removeInterruptHandler.rel ]
/home/cabox/workspace/cpctelera/cpctelera/cpctelera.lib
                                          [ cpct_drawSolidBox_cbindings.rel ]
/home/cabox/workspace/cpctelera/cpctelera/cpctelera.lib
                                          [ cpct_drawSpriteBlended_cbindings ]
/home/cabox/workspace/cpctelera/cpctelera/cpctelera.lib
                                          [ cpc_mode_rom_status.rel ]
/home/cabox/workspace/cpctelera/cpctelera/cpctelera.lib
                                          [ cpct_getScreenPtr_cbindings.rel ]
/home/cabox/workspace/cpctelera/cpctelera/cpctelera.lib
                                          [ cpct_drawSpriteMaskedAlignedTabl ]
/home/cabox/workspace/cpctelera/cpctelera/cpctelera.lib
                                          [ cpct_scanKeyboard.rel ]
/home/cabox/workspace/cpctelera/cpctelera/cpctelera.lib
                                          [ cpct_setInterruptHandler.rel ]
/home/cabox/workspace/cpctelera/cpctelera/tools/sdcc-3.6.8-r9946/bin/../share/sdcc/lib/z80/z80.lib
                                          [ printf_large.rel ]
/home/cabox/workspace/cpctelera/cpctelera/cpctelera.lib
                                          [ cpct_mxor32_seed.rel ]
/home/cabox/workspace/cpctelera/cpctelera/tools/sdcc-3.6.8-r9946/bin/../share/sdcc/lib/z80/z80.lib
                                          [ __sdcc_call_hl.rel ]
/home/cabox/workspace/cpctelera/cpctelera/cpctelera.lib
                                          [ cpct_dc_mode0_ct.rel ]
/home/cabox/workspace/cpctelera/cpctelera/tools/sdcc-3.6.8-r9946/bin/../share/sdcc/lib/z80/z80.lib
                                          [ strlen.rel ]

ASxxxx Linker V03.00 + NoICE + sdld,  page 9.

User Base Address Definitions

_CODE = 0x1000
_DATA = 0x0000

